ccopy_reg
_reconstructor
p0
(cargparse
Namespace
p1
c__builtin__
object
p2
Ntp3
Rp4
(dp5
S'grad_clip'
p6
F2.0
sS'precomp_enc_type'
p7
S'basic'
p8
sS'word_dim'
p9
I300
sS'lambda_lse'
p10
F6.0
sS'embed_size'
p11
I1024
sS'num_epochs'
p12
I30
sS'val_step'
p13
I500
sS'num_layers'
p14
I1
sS'cross_attn'
p15
S't2i'
p16
sS'workers'
p17
I10
sS'lr_update'
p18
I15
sS'agg_func'
p19
S'LogSumExp'
p20
sS'log_step'
p21
I10
sS'max_violation'
p22
I00
sS'raw_feature_norm'
p23
S'clipped_l2norm'
p24
sS'no_imgnorm'
p25
I00
sS'vocab_path'
p26
S'./vocab/'
p27
sS'learning_rate'
p28
F0.0002
sS'batch_size'
p29
I128
sS'bi_gru'
p30
I01
sS'logger_name'
p31
S'./runs/runX/log'
p32
sS'no_txtnorm'
p33
I00
sS'lambda_softmax'
p34
F9.0
sS'resume'
p35
S'./runs/coco_scan/log/model_best.pth'
p36
sS'img_dim'
p37
I2048
sS'margin'
p38
F0.2
sS'model_name'
p39
S'./runs/runX/checkpoint'
p40
sb.